; ModuleID = '58/58.c'
source_filename = "58/58.c"
target datalayout = "e-m:e-p270:32:32-p271:32:32-p272:64:64-i64:64-f80:128-n8:16:32:64-S128"
target triple = "x86_64-pc-linux-gnu"

@.str = private unnamed_addr constant [4 x i8] c"%d\0A\00", align 1
@.str.1 = private unnamed_addr constant [3 x i8] c"0\0A\00", align 1
@.str.2 = private unnamed_addr constant [3 x i8] c"1\0A\00", align 1

; Function Attrs: noinline nounwind uwtable
define dso_local void @main() #0 {
  %1 = alloca i8*, align 8
  %2 = alloca i8, align 1
  %3 = alloca i32, align 4
  %4 = alloca i32, align 4
  %5 = alloca i32, align 4
  %6 = alloca i32, align 4
  %7 = alloca i32, align 4
  %8 = alloca i32, align 4
  %9 = alloca i32, align 4
  %10 = call i32 (i8*, ...) @__isoc99_scanf(i8* getelementptr inbounds ([4 x i8], [4 x i8]* @.str, i64 0, i64 0), i32* %3)
  store i32 0, i32* %9, align 4
  br label %11

11:                                               ; preds = %99, %0
  %12 = load i32, i32* %9, align 4
  %13 = load i32, i32* %3, align 4
  %14 = icmp slt i32 %12, %13
  br i1 %14, label %15, label %102

15:                                               ; preds = %11
  %16 = call noalias i8* @malloc(i64 1000) #4
  store i8* %16, i8** %1, align 8
  %17 = load i8*, i8** %1, align 8
  %18 = call i32 (i8*, ...) bitcast (i32 (...)* @gets to i32 (i8*, ...)*)(i8* %17)
  %19 = load i8*, i8** %1, align 8
  %20 = call i64 @strlen(i8* %19) #5
  %21 = trunc i64 %20 to i32
  store i32 %21, i32* %7, align 4
  store i32 1, i32* %6, align 4
  %22 = load i8*, i8** %1, align 8
  %23 = load i8, i8* %22, align 1
  %24 = sext i8 %23 to i32
  %25 = icmp eq i32 %24, 95
  br i1 %25, label %48, label %26

26:                                               ; preds = %15
  %27 = load i8*, i8** %1, align 8
  %28 = load i8, i8* %27, align 1
  %29 = sext i8 %28 to i32
  %30 = icmp sle i32 %29, 90
  br i1 %30, label %31, label %36

31:                                               ; preds = %26
  %32 = load i8*, i8** %1, align 8
  %33 = load i8, i8* %32, align 1
  %34 = sext i8 %33 to i32
  %35 = icmp sge i32 %34, 65
  br i1 %35, label %48, label %36

36:                                               ; preds = %31, %26
  %37 = load i8*, i8** %1, align 8
  %38 = load i8, i8* %37, align 1
  %39 = sext i8 %38 to i32
  %40 = icmp sle i32 %39, 122
  br i1 %40, label %41, label %46

41:                                               ; preds = %36
  %42 = load i8*, i8** %1, align 8
  %43 = load i8, i8* %42, align 1
  %44 = sext i8 %43 to i32
  %45 = icmp sge i32 %44, 97
  br i1 %45, label %48, label %46

46:                                               ; preds = %41, %36
  %47 = call i32 (i8*, ...) @printf(i8* getelementptr inbounds ([3 x i8], [3 x i8]* @.str.1, i64 0, i64 0))
  br label %99

48:                                               ; preds = %41, %31, %15
  store i32 1, i32* %4, align 4
  br label %49

49:                                               ; preds = %89, %48
  %50 = load i32, i32* %4, align 4
  %51 = load i32, i32* %7, align 4
  %52 = icmp slt i32 %50, %51
  br i1 %52, label %53, label %92

53:                                               ; preds = %49
  %54 = load i8*, i8** %1, align 8
  %55 = load i32, i32* %4, align 4
  %56 = sext i32 %55 to i64
  %57 = getelementptr inbounds i8, i8* %54, i64 %56
  %58 = load i8, i8* %57, align 1
  store i8 %58, i8* %2, align 1
  %59 = load i8, i8* %2, align 1
  %60 = sext i8 %59 to i32
  %61 = icmp eq i32 %60, 95
  br i1 %61, label %88, label %62

62:                                               ; preds = %53
  %63 = load i8, i8* %2, align 1
  %64 = sext i8 %63 to i32
  %65 = icmp sle i32 %64, 90
  br i1 %65, label %66, label %70

66:                                               ; preds = %62
  %67 = load i8, i8* %2, align 1
  %68 = sext i8 %67 to i32
  %69 = icmp sge i32 %68, 65
  br i1 %69, label %88, label %70

70:                                               ; preds = %66, %62
  %71 = load i8, i8* %2, align 1
  %72 = sext i8 %71 to i32
  %73 = icmp sle i32 %72, 122
  br i1 %73, label %74, label %78

74:                                               ; preds = %70
  %75 = load i8, i8* %2, align 1
  %76 = sext i8 %75 to i32
  %77 = icmp sge i32 %76, 97
  br i1 %77, label %88, label %78

78:                                               ; preds = %74, %70
  %79 = load i8, i8* %2, align 1
  %80 = sext i8 %79 to i32
  %81 = icmp sle i32 %80, 57
  br i1 %81, label %82, label %86

82:                                               ; preds = %78
  %83 = load i8, i8* %2, align 1
  %84 = sext i8 %83 to i32
  %85 = icmp sge i32 %84, 48
  br i1 %85, label %88, label %86

86:                                               ; preds = %82, %78
  %87 = call i32 (i8*, ...) @printf(i8* getelementptr inbounds ([3 x i8], [3 x i8]* @.str.1, i64 0, i64 0))
  store i32 0, i32* %6, align 4
  br label %92

88:                                               ; preds = %82, %74, %66, %53
  br label %89

89:                                               ; preds = %88
  %90 = load i32, i32* %4, align 4
  %91 = add nsw i32 %90, 1
  store i32 %91, i32* %4, align 4
  br label %49

92:                                               ; preds = %86, %49
  %93 = load i32, i32* %6, align 4
  %94 = icmp ne i32 %93, 0
  br i1 %94, label %95, label %97

95:                                               ; preds = %92
  %96 = call i32 (i8*, ...) @printf(i8* getelementptr inbounds ([3 x i8], [3 x i8]* @.str.2, i64 0, i64 0))
  br label %97

97:                                               ; preds = %95, %92
  %98 = load i8*, i8** %1, align 8
  call void @free(i8* %98) #4
  br label %99

99:                                               ; preds = %97, %46
  %100 = load i32, i32* %9, align 4
  %101 = add nsw i32 %100, 1
  store i32 %101, i32* %9, align 4
  br label %11

102:                                              ; preds = %11
  ret void
}

declare dso_local i32 @__isoc99_scanf(i8*, ...) #1

; Function Attrs: nounwind
declare dso_local noalias i8* @malloc(i64) #2

declare dso_local i32 @gets(...) #1

; Function Attrs: nounwind readonly
declare dso_local i64 @strlen(i8*) #3

declare dso_local i32 @printf(i8*, ...) #1

; Function Attrs: nounwind
declare dso_local void @free(i8*) #2


!llvm.module.flags = !{!0}
!llvm.ident = !{!1}

!0 = !{i32 1, !"wchar_size", i32 4}
!1 = !{!"clang version 10.0.0-4ubuntu1 "}
