; ModuleID = 'source-C-CXX/57/58.c'
source_filename = "source-C-CXX/57/58.c"
target datalayout = "e-m:e-p270:32:32-p271:32:32-p272:64:64-i64:64-f80:128-n8:16:32:64-S128"
target triple = "x86_64-pc-linux-gnu"

@.str = private unnamed_addr constant [4 x i8] c"%d\0A\00", align 1
@str.3 = private unnamed_addr constant [2 x i8] c"1\00", align 1
@str.4 = private unnamed_addr constant [2 x i8] c"0\00", align 1

; Function Attrs: nounwind sspstrong uwtable
define dso_local void @main() local_unnamed_addr #0 {
  %1 = alloca i32, align 4
  %2 = bitcast i32* %1 to i8*
  call void @llvm.lifetime.start.p0i8(i64 4, i8* nonnull %2) #8
  %3 = call i32 (i8*, ...) @__isoc99_scanf(i8* getelementptr inbounds ([4 x i8], [4 x i8]* @.str, i64 0, i64 0), i32* nonnull %1)
  %4 = load i32, i32* %1, align 4, !tbaa !5
  %5 = icmp sgt i32 %4, 0
  br i1 %5, label %6, label %46

6:                                                ; preds = %0, %42
  %7 = phi i32 [ %43, %42 ], [ 0, %0 ]
  %8 = call noalias align 16 dereferenceable_or_null(1000) i8* @malloc(i64 1000) #8
  %9 = call i32 (i8*, ...) bitcast (i32 (...)* @gets to i32 (i8*, ...)*)(i8* %8) #8
  %10 = call i64 @strlen(i8* noundef nonnull dereferenceable(1) %8) #9
  %11 = load i8, i8* %8, align 16, !tbaa !9
  %12 = icmp eq i8 %11, 95
  %13 = and i8 %11, -33
  %14 = add i8 %13, -65
  %15 = icmp ult i8 %14, 26
  %16 = or i1 %15, %12
  br i1 %16, label %17, label %22

17:                                               ; preds = %6
  %18 = trunc i64 %10 to i32
  %19 = icmp sgt i32 %18, 1
  br i1 %19, label %20, label %39

20:                                               ; preds = %17
  %21 = and i64 %10, 4294967295
  br label %26

22:                                               ; preds = %6
  %23 = call i32 @puts(i8* nonnull dereferenceable(1) getelementptr inbounds ([2 x i8], [2 x i8]* @str.4, i64 0, i64 0))
  br label %42

24:                                               ; preds = %26
  %25 = icmp eq i64 %38, %21
  br i1 %25, label %39, label %26, !llvm.loop !10

26:                                               ; preds = %20, %24
  %27 = phi i64 [ 1, %20 ], [ %38, %24 ]
  %28 = getelementptr inbounds i8, i8* %8, i64 %27
  %29 = load i8, i8* %28, align 1, !tbaa !9
  %30 = icmp eq i8 %29, 95
  %31 = and i8 %29, -33
  %32 = add i8 %31, -65
  %33 = icmp ult i8 %32, 26
  %34 = or i1 %33, %30
  %35 = add i8 %29, -48
  %36 = icmp ult i8 %35, 10
  %37 = or i1 %34, %36
  %38 = add nuw nsw i64 %27, 1
  br i1 %37, label %24, label %39

39:                                               ; preds = %24, %26, %17
  %40 = phi i8* [ getelementptr inbounds ([2 x i8], [2 x i8]* @str.3, i64 0, i64 0), %17 ], [ getelementptr inbounds ([2 x i8], [2 x i8]* @str.4, i64 0, i64 0), %26 ], [ getelementptr inbounds ([2 x i8], [2 x i8]* @str.3, i64 0, i64 0), %24 ]
  %41 = call i32 @puts(i8* nonnull dereferenceable(1) %40)
  call void @free(i8* nonnull %8) #8
  br label %42

42:                                               ; preds = %39, %22
  %43 = add nuw nsw i32 %7, 1
  %44 = load i32, i32* %1, align 4, !tbaa !5
  %45 = icmp slt i32 %43, %44
  br i1 %45, label %6, label %46, !llvm.loop !12

46:                                               ; preds = %42, %0
  call void @llvm.lifetime.end.p0i8(i64 4, i8* nonnull %2) #8
  ret void
}

; Function Attrs: argmemonly mustprogress nofree nosync nounwind willreturn
declare void @llvm.lifetime.start.p0i8(i64 immarg, i8* nocapture) #1

; Function Attrs: nofree nounwind
declare noundef i32 @__isoc99_scanf(i8* nocapture noundef readonly, ...) local_unnamed_addr #2

; Function Attrs: inaccessiblememonly mustprogress nofree nounwind willreturn
declare noalias noundef align 16 i8* @malloc(i64 noundef) local_unnamed_addr #3

declare i32 @gets(...) local_unnamed_addr #4

; Function Attrs: argmemonly mustprogress nofree nounwind readonly willreturn
declare i64 @strlen(i8* nocapture) local_unnamed_addr #5

; Function Attrs: inaccessiblemem_or_argmemonly mustprogress nounwind willreturn
declare void @free(i8* nocapture noundef) local_unnamed_addr #6

; Function Attrs: argmemonly mustprogress nofree nosync nounwind willreturn
declare void @llvm.lifetime.end.p0i8(i64 immarg, i8* nocapture) #1

; Function Attrs: nofree nounwind
declare noundef i32 @puts(i8* nocapture noundef readonly) local_unnamed_addr #7


!llvm.module.flags = !{!0, !1, !2, !3}
!llvm.ident = !{!4}

!0 = !{i32 1, !"wchar_size", i32 4}
!1 = !{i32 7, !"PIC Level", i32 2}
!2 = !{i32 7, !"PIE Level", i32 2}
!3 = !{i32 7, !"uwtable", i32 1}
!4 = !{!"clang version 13.0.0"}
!5 = !{!6, !6, i64 0}
!6 = !{!"int", !7, i64 0}
!7 = !{!"omnipotent char", !8, i64 0}
!8 = !{!"Simple C/C++ TBAA"}
!9 = !{!7, !7, i64 0}
!10 = distinct !{!10, !11}
!11 = !{!"llvm.loop.mustprogress"}
!12 = distinct !{!12, !11}
